#include <math.h>
#include <stdio.h>
#include <stdlib.h>
#include <string.h>
#include <iostream>
using namespace std;


int main()
{
	int a[201] = {0};
	int i, j;
	a[1] = a[0] = 1;
	int n;
	cin >> n;
	for (i = 1; i <= n; i++)
	{
		for (j = 1; j <= a[0]; j++)
			a[j] = a[j] * 2;
		for (j = 1; j <= a[0]; j++)
		{
			a[j + 1] += a[j] / 10;
			a[j] = a[j] % 10;
		}
		if (a[a[0] + 1] > 0) a[0]++;
	}
	for (i = a[0]; i >= 1; i--)
		cout << a[i];
	cout << endl;
	
	return 0;
}